(lp0
(dp1
(S'bro'
p2
S'ciscoasa'
p3
S'ciscovpn'
p4
S'pan'
p5
S'suricata'
p6
tp7
(dp8
s(g2
g4
g5
g6
tp9
(dp10
s(g2
g3
g4
g5
tp11
(dp12
s(g4
g5
g6
tp13
(dp14
s(g3
g6
tp15
(dp16
s(g3
g5
tp17
(dp18
V160.241.205.34
p19
(lp20
I1
aI1
asV10.23.153.68
p21
(lp22
I5
aI1
asV32.157.169.104
p23
(lp24
I2
aI46
asV198.208.140.134
p25
(lp26
I1
aI1
asV10.20.144.124
p27
(lp28
I1
aI3
asV22.106.139.121
p29
(lp30
I1
aI1
asV139.33.202.99
p31
(lp32
I1
aI1
asV32.157.169.81
p33
(lp34
I3
aI56
asV176.151.242.73
p35
(lp36
I3
aI42
asV10.23.153.28
p37
(lp38
I86
aI1
ass(g2
g4
tp39
(dp40
s(g3
g5
g6
tp41
(dp42
s(g3
g4
g6
tp43
(dp44
s(g2
g5
tp45
(dp46
V10.17.107.5
p47
(lp48
I3
aI78
ass(g2
g3
tp49
(dp50
s(g2
g3
g6
tp51
(dp52
s(g2
g6
tp53
(dp54
V30.169.95.101
p55
(lp56
I2
aI2
ass(g4
g5
tp57
(dp58
s(g2
g3
g5
tp59
(dp60
s(g2
g5
g6
tp61
(dp62
s(g5
g6
tp63
(dp64
s(g2
g4
g5
tp65
(dp66
s(g4
g6
tp67
(dp68
s(g2
g3
g4
g6
tp69
(dp70
s(g2
g4
g6
tp71
(dp72
s(g2
g3
g4
tp73
(dp74
s(g2
g3
g5
g6
tp75
(dp76
s(g3
g4
g5
tp77
(dp78
s(g3
g4
tp79
(dp80
s(g3
g4
g5
g6
tp81
(dp82
sa(dp83
(g2
g3
g4
g5
g6
tp84
(dp85
s(g2
g4
g5
g6
tp86
(dp87
s(g2
g3
g4
g5
tp88
(dp89
s(g4
g5
g6
tp90
(dp91
s(g3
g6
tp92
(dp93
s(g3
g5
tp94
(dp95
V160.241.205.34
p96
(lp97
I1
aI2
asV10.20.144.124
p98
(lp99
I2
aI3
asV10.23.153.68
p100
(lp101
I18
aI1
asV139.33.202.99
p102
(lp103
I1
aI2
asV10.23.164.22
p104
(lp105
I29
aI3
ass(g2
g4
tp106
(dp107
s(g3
g5
g6
tp108
(dp109
s(g3
g4
g6
tp110
(dp111
s(g2
g5
tp112
(dp113
s(g2
g3
tp114
(dp115
s(g2
g3
g6
tp116
(dp117
s(g2
g6
tp118
(dp119
s(g4
g5
tp120
(dp121
s(g2
g3
g5
tp122
(dp123
s(g2
g5
g6
tp124
(dp125
s(g5
g6
tp126
(dp127
s(g2
g4
g5
tp128
(dp129
s(g4
g6
tp130
(dp131
s(g2
g3
g4
g6
tp132
(dp133
s(g2
g4
g6
tp134
(dp135
s(g2
g3
g4
tp136
(dp137
s(g2
g3
g5
g6
tp138
(dp139
s(g3
g4
g5
tp140
(dp141
s(g3
g4
tp142
(dp143
s(g3
g4
g5
g6
tp144
(dp145
sa(dp146
(g2
g3
g4
g5
g6
tp147
(dp148
s(g2
g4
g5
g6
tp149
(dp150
s(g2
g3
g4
g5
tp151
(dp152
s(g4
g5
g6
tp153
(dp154
s(g3
g6
tp155
(dp156
s(g3
g5
tp157
(dp158
V10.23.51.73
p159
(lp160
I19
aI2
asV10.23.164.22
p161
(lp162
I25
aI7
ass(g2
g4
tp163
(dp164
s(g3
g5
g6
tp165
(dp166
s(g3
g4
g6
tp167
(dp168
s(g2
g5
tp169
(dp170
s(g2
g3
tp171
(dp172
s(g2
g3
g6
tp173
(dp174
s(g2
g6
tp175
(dp176
s(g4
g5
tp177
(dp178
s(g2
g3
g5
tp179
(dp180
s(g2
g5
g6
tp181
(dp182
s(g5
g6
tp183
(dp184
s(g2
g4
g5
tp185
(dp186
s(g4
g6
tp187
(dp188
s(g2
g3
g4
g6
tp189
(dp190
s(g2
g4
g6
tp191
(dp192
s(g2
g3
g4
tp193
(dp194
s(g2
g3
g5
g6
tp195
(dp196
s(g3
g4
g5
tp197
(dp198
s(g3
g4
tp199
(dp200
s(g3
g4
g5
g6
tp201
(dp202
sa(dp203
(g2
g3
g4
g5
g6
tp204
(dp205
s(g2
g4
g5
g6
tp206
(dp207
s(g2
g3
g4
g5
tp208
(dp209
s(g4
g5
g6
tp210
(dp211
s(g3
g6
tp212
(dp213
s(g3
g5
tp214
(dp215
V32.157.169.81
p216
(lp217
I1
aI39
asV10.23.51.73
p218
(lp219
I28
aI2
asV10.23.164.22
p220
(lp221
I57
aI4
ass(g2
g4
tp222
(dp223
s(g3
g5
g6
tp224
(dp225
s(g3
g4
g6
tp226
(dp227
s(g2
g5
tp228
(dp229
V10.17.107.5
p230
(lp231
I5
aI147
ass(g2
g3
tp232
(dp233
s(g2
g3
g6
tp234
(dp235
s(g2
g6
tp236
(dp237
s(g4
g5
tp238
(dp239
s(g2
g3
g5
tp240
(dp241
s(g2
g5
g6
tp242
(dp243
s(g5
g6
tp244
(dp245
s(g2
g4
g5
tp246
(dp247
s(g4
g6
tp248
(dp249
s(g2
g3
g4
g6
tp250
(dp251
s(g2
g4
g6
tp252
(dp253
s(g2
g3
g4
tp254
(dp255
s(g2
g3
g5
g6
tp256
(dp257
s(g3
g4
g5
tp258
(dp259
s(g3
g4
tp260
(dp261
s(g3
g4
g5
g6
tp262
(dp263
sa(dp264
(g2
g3
g4
g5
g6
tp265
(dp266
s(g2
g4
g5
g6
tp267
(dp268
s(g2
g3
g4
g5
tp269
(dp270
s(g4
g5
g6
tp271
(dp272
s(g3
g6
tp273
(dp274
s(g3
g5
tp275
(dp276
V10.23.51.73
p277
(lp278
I31
aI1
asV32.157.169.104
p279
(lp280
I3
aI35
asV10.23.156.41
p281
(lp282
I15
aI10
asV188.51.150.4
p283
(lp284
I1
aI1
asV32.157.169.81
p285
(lp286
I3
aI51
asV176.151.242.73
p287
(lp288
I2
aI36
asV10.23.164.22
p289
(lp290
I50
aI4
ass(g2
g4
tp291
(dp292
s(g3
g5
g6
tp293
(dp294
s(g3
g4
g6
tp295
(dp296
s(g2
g5
tp297
(dp298
V10.17.107.37
p299
(lp300
I1
aI2
asV10.17.107.5
p301
(lp302
I17
aI142
ass(g2
g3
tp303
(dp304
s(g2
g3
g6
tp305
(dp306
s(g2
g6
tp307
(dp308
V30.169.95.100
p309
(lp310
I1
aI2
ass(g4
g5
tp311
(dp312
s(g2
g3
g5
tp313
(dp314
s(g2
g5
g6
tp315
(dp316
s(g5
g6
tp317
(dp318
s(g2
g4
g5
tp319
(dp320
s(g4
g6
tp321
(dp322
s(g2
g3
g4
g6
tp323
(dp324
s(g2
g4
g6
tp325
(dp326
s(g2
g3
g4
tp327
(dp328
s(g2
g3
g5
g6
tp329
(dp330
s(g3
g4
g5
tp331
(dp332
s(g3
g4
tp333
(dp334
s(g3
g4
g5
g6
tp335
(dp336
sa(dp337
(g2
g3
g4
g5
g6
tp338
(dp339
s(g2
g4
g5
g6
tp340
(dp341
s(g2
g3
g4
g5
tp342
(dp343
s(g4
g5
g6
tp344
(dp345
s(g3
g6
tp346
(dp347
s(g3
g5
tp348
(dp349
V32.157.169.144
p350
(lp351
I1
aI41
asV32.157.169.104
p352
(lp353
I3
aI46
asV125.163.155.231
p354
(lp355
I1
aI1
asV10.23.51.80
p356
(lp357
I8
aI1
asV10.23.156.41
p358
(lp359
I14
aI10
asV160.241.192.138
p360
(lp361
I1
aI1
asV32.157.169.81
p362
(lp363
I2
aI55
asV10.23.164.22
p364
(lp365
I17
aI4
asV176.151.242.73
p366
(lp367
I3
aI42
asV10.23.51.73
p368
(lp369
I14
aI1
ass(g2
g4
tp370
(dp371
s(g3
g5
g6
tp372
(dp373
s(g3
g4
g6
tp374
(dp375
s(g2
g5
tp376
(dp377
V10.17.107.37
p378
(lp379
I1
aI5
asV10.17.107.5
p380
(lp381
I16
aI133
ass(g2
g3
tp382
(dp383
s(g2
g3
g6
tp384
(dp385
s(g2
g6
tp386
(dp387
V30.169.95.100
p388
(lp389
I5
aI2
ass(g4
g5
tp390
(dp391
s(g2
g3
g5
tp392
(dp393
s(g2
g5
g6
tp394
(dp395
s(g5
g6
tp396
(dp397
s(g2
g4
g5
tp398
(dp399
s(g4
g6
tp400
(dp401
s(g2
g3
g4
g6
tp402
(dp403
s(g2
g4
g6
tp404
(dp405
s(g2
g3
g4
tp406
(dp407
s(g2
g3
g5
g6
tp408
(dp409
s(g3
g4
g5
tp410
(dp411
s(g3
g4
tp412
(dp413
s(g3
g4
g5
g6
tp414
(dp415
sa(dp416
(g2
g3
g4
g5
g6
tp417
(dp418
s(g2
g4
g5
g6
tp419
(dp420
s(g2
g3
g4
g5
tp421
(dp422
s(g4
g5
g6
tp423
(dp424
s(g3
g6
tp425
(dp426
s(g3
g5
tp427
(dp428
V160.241.192.138
p429
(lp430
I1
aI3
asV10.23.51.80
p431
(lp432
I13
aI1
asV32.157.169.144
p433
(lp434
I1
aI40
ass(g2
g4
tp435
(dp436
s(g3
g5
g6
tp437
(dp438
s(g3
g4
g6
tp439
(dp440
s(g2
g5
tp441
(dp442
V10.17.107.5
p443
(lp444
I7
aI213
ass(g2
g3
tp445
(dp446
s(g2
g3
g6
tp447
(dp448
s(g2
g6
tp449
(dp450
s(g4
g5
tp451
(dp452
s(g2
g3
g5
tp453
(dp454
s(g2
g5
g6
tp455
(dp456
s(g5
g6
tp457
(dp458
s(g2
g4
g5
tp459
(dp460
s(g4
g6
tp461
(dp462
s(g2
g3
g4
g6
tp463
(dp464
s(g2
g4
g6
tp465
(dp466
s(g2
g3
g4
tp467
(dp468
s(g2
g3
g5
g6
tp469
(dp470
s(g3
g4
g5
tp471
(dp472
s(g3
g4
tp473
(dp474
s(g3
g4
g5
g6
tp475
(dp476
sa(dp477
(g2
g3
g4
g5
g6
tp478
(dp479
s(g2
g4
g5
g6
tp480
(dp481
s(g2
g3
g4
g5
tp482
(dp483
s(g4
g5
g6
tp484
(dp485
s(g3
g6
tp486
(dp487
s(g3
g5
tp488
(dp489
V23.36.62.78
p490
(lp491
I1
aI1
asV139.33.10.245
p492
(lp493
I1
aI1
asV205.75.31.31
p494
(lp495
I1
aI1
asV168.83.47.16
p496
(lp497
I1
aI2
ass(g2
g4
tp498
(dp499
s(g3
g5
g6
tp500
(dp501
s(g3
g4
g6
tp502
(dp503
s(g2
g5
tp504
(dp505
V10.17.107.37
p506
(lp507
I1
aI2
asV10.17.107.5
p508
(lp509
I9
aI301
ass(g2
g3
tp510
(dp511
s(g2
g3
g6
tp512
(dp513
s(g2
g6
tp514
(dp515
V30.169.95.101
p516
(lp517
I2
aI2
asV30.169.95.100
p518
(lp519
I13
aI2
ass(g4
g5
tp520
(dp521
s(g2
g3
g5
tp522
(dp523
s(g2
g5
g6
tp524
(dp525
s(g5
g6
tp526
(dp527
s(g2
g4
g5
tp528
(dp529
s(g4
g6
tp530
(dp531
s(g2
g3
g4
g6
tp532
(dp533
s(g2
g4
g6
tp534
(dp535
s(g2
g3
g4
tp536
(dp537
s(g2
g3
g5
g6
tp538
(dp539
s(g3
g4
g5
tp540
(dp541
s(g3
g4
tp542
(dp543
s(g3
g4
g5
g6
tp544
(dp545
sa(dp546
(g2
g3
g4
g5
g6
tp547
(dp548
s(g2
g4
g5
g6
tp549
(dp550
s(g2
g3
g4
g5
tp551
(dp552
s(g4
g5
g6
tp553
(dp554
s(g3
g6
tp555
(dp556
s(g3
g5
tp557
(dp558
V10.23.51.80
p559
(lp560
I4
aI1
asV139.33.10.245
p561
(lp562
I1
aI2
asV58.125.209.184
p563
(lp564
I1
aI1
ass(g2
g4
tp565
(dp566
s(g3
g5
g6
tp567
(dp568
s(g3
g4
g6
tp569
(dp570
s(g2
g5
tp571
(dp572
V10.17.107.37
p573
(lp574
I1
aI2
asV10.17.107.5
p575
(lp576
I7
aI274
ass(g2
g3
tp577
(dp578
s(g2
g3
g6
tp579
(dp580
s(g2
g6
tp581
(dp582
V30.169.95.101
p583
(lp584
I4
aI4
asV30.169.95.100
p585
(lp586
I12
aI2
ass(g4
g5
tp587
(dp588
s(g2
g3
g5
tp589
(dp590
s(g2
g5
g6
tp591
(dp592
s(g5
g6
tp593
(dp594
s(g2
g4
g5
tp595
(dp596
s(g4
g6
tp597
(dp598
s(g2
g3
g4
g6
tp599
(dp600
s(g2
g4
g6
tp601
(dp602
s(g2
g3
g4
tp603
(dp604
s(g2
g3
g5
g6
tp605
(dp606
s(g3
g4
g5
tp607
(dp608
s(g3
g4
tp609
(dp610
s(g3
g4
g5
g6
tp611
(dp612
sa(dp613
(g2
g3
g4
g5
g6
tp614
(dp615
s(g2
g4
g5
g6
tp616
(dp617
s(g2
g3
g4
g5
tp618
(dp619
s(g4
g5
g6
tp620
(dp621
s(g3
g6
tp622
(dp623
s(g3
g5
tp624
(dp625
V32.157.169.104
p626
(lp627
I2
aI36
asV32.157.169.81
p628
(lp629
I3
aI51
asV10.23.51.80
p630
(lp631
I1
aI1
asV10.20.144.117
p632
(lp633
I1
aI4
asV176.151.242.73
p634
(lp635
I2
aI36
ass(g2
g4
tp636
(dp637
s(g3
g5
g6
tp638
(dp639
s(g3
g4
g6
tp640
(dp641
s(g2
g5
tp642
(dp643
V10.17.107.5
p644
(lp645
I5
aI231
ass(g2
g3
tp646
(dp647
s(g2
g3
g6
tp648
(dp649
s(g2
g6
tp650
(dp651
V30.169.95.101
p652
(lp653
I4
aI6
ass(g4
g5
tp654
(dp655
s(g2
g3
g5
tp656
(dp657
s(g2
g5
g6
tp658
(dp659
s(g5
g6
tp660
(dp661
s(g2
g4
g5
tp662
(dp663
s(g4
g6
tp664
(dp665
s(g2
g3
g4
g6
tp666
(dp667
s(g2
g4
g6
tp668
(dp669
s(g2
g3
g4
tp670
(dp671
s(g2
g3
g5
g6
tp672
(dp673
s(g3
g4
g5
tp674
(dp675
s(g3
g4
tp676
(dp677
s(g3
g4
g5
g6
tp678
(dp679
sa(dp680
(g2
g3
g4
g5
g6
tp681
(dp682
s(g2
g4
g5
g6
tp683
(dp684
s(g2
g3
g4
g5
tp685
(dp686
s(g4
g5
g6
tp687
(dp688
s(g3
g6
tp689
(dp690
s(g3
g5
tp691
(dp692
V32.157.169.144
p693
(lp694
I2
aI41
asV32.157.169.104
p695
(lp696
I2
aI46
asV10.20.145.240
p697
(lp698
I11
aI6
asV139.33.202.99
p699
(lp700
I1
aI1
asV32.157.169.81
p701
(lp702
I3
aI56
asV176.151.242.73
p703
(lp704
I3
aI41
ass(g2
g4
tp705
(dp706
s(g3
g5
g6
tp707
(dp708
s(g3
g4
g6
tp709
(dp710
s(g2
g5
tp711
(dp712
V10.17.107.37
p713
(lp714
I1
aI3
asV10.17.107.5
p715
(lp716
I8
aI191
ass(g2
g3
tp717
(dp718
s(g2
g3
g6
tp719
(dp720
s(g2
g6
tp721
(dp722
V30.169.95.101
p723
(lp724
I2
aI4
asV30.169.95.100
p725
(lp726
I3
aI2
ass(g4
g5
tp727
(dp728
s(g2
g3
g5
tp729
(dp730
s(g2
g5
g6
tp731
(dp732
s(g5
g6
tp733
(dp734
s(g2
g4
g5
tp735
(dp736
s(g4
g6
tp737
(dp738
s(g2
g3
g4
g6
tp739
(dp740
s(g2
g4
g6
tp741
(dp742
s(g2
g3
g4
tp743
(dp744
s(g2
g3
g5
g6
tp745
(dp746
s(g3
g4
g5
tp747
(dp748
s(g3
g4
tp749
(dp750
s(g3
g4
g5
g6
tp751
(dp752
sa(dp753
(g2
g3
g4
g5
g6
tp754
(dp755
s(g2
g4
g5
g6
tp756
(dp757
s(g2
g3
g4
g5
tp758
(dp759
s(g4
g5
g6
tp760
(dp761
s(g3
g6
tp762
(dp763
s(g3
g5
tp764
(dp765
V139.33.202.99
p766
(lp767
I1
aI1
asV32.157.169.144
p768
(lp769
I2
aI39
asV10.20.145.240
p770
(lp771
I5
aI12
ass(g2
g4
tp772
(dp773
s(g3
g5
g6
tp774
(dp775
s(g3
g4
g6
tp776
(dp777
s(g2
g5
tp778
(dp779
V10.17.107.5
p780
(lp781
I7
aI192
ass(g2
g3
tp782
(dp783
s(g2
g3
g6
tp784
(dp785
s(g2
g6
tp786
(dp787
V30.169.95.100
p788
(lp789
I3
aI2
ass(g4
g5
tp790
(dp791
s(g2
g3
g5
tp792
(dp793
s(g2
g5
g6
tp794
(dp795
s(g5
g6
tp796
(dp797
s(g2
g4
g5
tp798
(dp799
s(g4
g6
tp800
(dp801
s(g2
g3
g4
g6
tp802
(dp803
s(g2
g4
g6
tp804
(dp805
s(g2
g3
g4
tp806
(dp807
s(g2
g3
g5
g6
tp808
(dp809
s(g3
g4
g5
tp810
(dp811
s(g3
g4
tp812
(dp813
s(g3
g4
g5
g6
tp814
(dp815
sa(dp816
(g2
g3
g4
g5
g6
tp817
(dp818
s(g2
g4
g5
g6
tp819
(dp820
s(g2
g3
g4
g5
tp821
(dp822
s(g4
g5
g6
tp823
(dp824
s(g3
g6
tp825
(dp826
s(g3
g5
tp827
(dp828
V54.219.206.103
p829
(lp830
I1
aI1
asV10.20.145.240
p831
(lp832
I1
aI10
ass(g2
g4
tp833
(dp834
s(g3
g5
g6
tp835
(dp836
s(g3
g4
g6
tp837
(dp838
s(g2
g5
tp839
(dp840
V10.17.107.5
p841
(lp842
I3
aI191
ass(g2
g3
tp843
(dp844
s(g2
g3
g6
tp845
(dp846
s(g2
g6
tp847
(dp848
V30.169.95.101
p849
(lp850
I3
aI4
ass(g4
g5
tp851
(dp852
s(g2
g3
g5
tp853
(dp854
s(g2
g5
g6
tp855
(dp856
s(g5
g6
tp857
(dp858
s(g2
g4
g5
tp859
(dp860
s(g4
g6
tp861
(dp862
s(g2
g3
g4
g6
tp863
(dp864
s(g2
g4
g6
tp865
(dp866
s(g2
g3
g4
tp867
(dp868
s(g2
g3
g5
g6
tp869
(dp870
s(g3
g4
g5
tp871
(dp872
s(g3
g4
tp873
(dp874
s(g3
g4
g5
g6
tp875
(dp876
sa(dp877
(g2
g3
g4
g5
g6
tp878
(dp879
s(g2
g4
g5
g6
tp880
(dp881
s(g2
g3
g4
g5
tp882
(dp883
s(g4
g5
g6
tp884
(dp885
s(g3
g6
tp886
(dp887
s(g3
g5
tp888
(dp889
V168.83.47.58
p890
(lp891
I1
aI2
asV10.20.145.240
p892
(lp893
I1
aI7
ass(g2
g4
tp894
(dp895
s(g3
g5
g6
tp896
(dp897
s(g3
g4
g6
tp898
(dp899
s(g2
g5
tp900
(dp901
V10.17.107.37
p902
(lp903
I1
aI5
asV10.17.107.5
p904
(lp905
I5
aI167
ass(g2
g3
tp906
(dp907
s(g2
g3
g6
tp908
(dp909
s(g2
g6
tp910
(dp911
V30.169.95.101
p912
(lp913
I3
aI2
ass(g4
g5
tp914
(dp915
s(g2
g3
g5
tp916
(dp917
s(g2
g5
g6
tp918
(dp919
s(g5
g6
tp920
(dp921
s(g2
g4
g5
tp922
(dp923
s(g4
g6
tp924
(dp925
s(g2
g3
g4
g6
tp926
(dp927
s(g2
g4
g6
tp928
(dp929
s(g2
g3
g4
tp930
(dp931
s(g2
g3
g5
g6
tp932
(dp933
s(g3
g4
g5
tp934
(dp935
s(g3
g4
tp936
(dp937
s(g3
g4
g5
g6
tp938
(dp939
sa(dp940
(g2
g3
g4
g5
g6
tp941
(dp942
s(g2
g4
g5
g6
tp943
(dp944
s(g2
g3
g4
g5
tp945
(dp946
s(g4
g5
g6
tp947
(dp948
s(g3
g6
tp949
(dp950
s(g3
g5
tp951
(dp952
V10.23.51.73
p953
(lp954
I20
aI1
asV168.83.47.58
p955
(lp956
I1
aI2
asV32.157.169.104
p957
(lp958
I2
aI37
asV10.23.51.84
p959
(lp960
I1
aI1
asV165.7.135.131
p961
(lp962
I1
aI1
asV32.157.169.81
p963
(lp964
I3
aI51
asV176.151.242.73
p965
(lp966
I3
aI36
ass(g2
g4
tp967
(dp968
s(g3
g5
g6
tp969
(dp970
s(g3
g4
g6
tp971
(dp972
s(g2
g5
tp973
(dp974
V10.17.107.37
p975
(lp976
I1
aI2
asV10.17.107.5
p977
(lp978
I7
aI149
ass(g2
g3
tp979
(dp980
s(g2
g3
g6
tp981
(dp982
s(g2
g6
tp983
(dp984
s(g4
g5
tp985
(dp986
s(g2
g3
g5
tp987
(dp988
s(g2
g5
g6
tp989
(dp990
s(g5
g6
tp991
(dp992
s(g2
g4
g5
tp993
(dp994
s(g4
g6
tp995
(dp996
s(g2
g3
g4
g6
tp997
(dp998
s(g2
g4
g6
tp999
(dp1000
s(g2
g3
g4
tp1001
(dp1002
s(g2
g3
g5
g6
tp1003
(dp1004
s(g3
g4
g5
tp1005
(dp1006
s(g3
g4
tp1007
(dp1008
s(g3
g4
g5
g6
tp1009
(dp1010
sa(dp1011
(g2
g3
g4
g5
g6
tp1012
(dp1013
s(g2
g4
g5
g6
tp1014
(dp1015
s(g2
g3
g4
g5
tp1016
(dp1017
s(g4
g5
g6
tp1018
(dp1019
s(g3
g6
tp1020
(dp1021
s(g3
g5
tp1022
(dp1023
V10.23.160.43
p1024
(lp1025
I8
aI1
asV10.23.51.73
p1026
(lp1027
I14
aI1
asV32.157.169.104
p1028
(lp1029
I2
aI47
asV10.23.160.24
p1030
(lp1031
I1
aI1
asV165.7.135.131
p1032
(lp1033
I1
aI1
asV32.157.169.81
p1034
(lp1035
I3
aI54
asV176.151.242.73
p1036
(lp1037
I3
aI41
asV233.163.124.90
p1038
(lp1039
I1
aI1
ass(g2
g4
tp1040
(dp1041
s(g3
g5
g6
tp1042
(dp1043
s(g3
g4
g6
tp1044
(dp1045
s(g2
g5
tp1046
(dp1047
V10.17.107.5
p1048
(lp1049
I2
aI116
ass(g2
g3
tp1050
(dp1051
s(g2
g3
g6
tp1052
(dp1053
s(g2
g6
tp1054
(dp1055
s(g4
g5
tp1056
(dp1057
s(g2
g3
g5
tp1058
(dp1059
s(g2
g5
g6
tp1060
(dp1061
s(g5
g6
tp1062
(dp1063
s(g2
g4
g5
tp1064
(dp1065
s(g4
g6
tp1066
(dp1067
s(g2
g3
g4
g6
tp1068
(dp1069
s(g2
g4
g6
tp1070
(dp1071
s(g2
g3
g4
tp1072
(dp1073
s(g2
g3
g5
g6
tp1074
(dp1075
s(g3
g4
g5
tp1076
(dp1077
s(g3
g4
tp1078
(dp1079
s(g3
g4
g5
g6
tp1080
(dp1081
sa(dp1082
(g2
g3
g4
g5
g6
tp1083
(dp1084
s(g2
g4
g5
g6
tp1085
(dp1086
s(g2
g3
g4
g5
tp1087
(dp1088
s(g4
g5
g6
tp1089
(dp1090
s(g3
g6
tp1091
(dp1092
s(g3
g5
tp1093
(dp1094
V99.9.10.202
p1095
(lp1096
I1
aI2
asV10.23.160.43
p1097
(lp1098
I10
aI1
asV10.20.145.240
p1099
(lp1100
I3
aI10
asV10.23.164.22
p1101
(lp1102
I18
aI2
ass(g2
g4
tp1103
(dp1104
s(g3
g5
g6
tp1105
(dp1106
s(g3
g4
g6
tp1107
(dp1108
s(g2
g5
tp1109
(dp1110
s(g2
g3
tp1111
(dp1112
s(g2
g3
g6
tp1113
(dp1114
s(g2
g6
tp1115
(dp1116
s(g4
g5
tp1117
(dp1118
s(g2
g3
g5
tp1119
(dp1120
s(g2
g5
g6
tp1121
(dp1122
s(g5
g6
tp1123
(dp1124
s(g2
g4
g5
tp1125
(dp1126
s(g4
g6
tp1127
(dp1128
s(g2
g3
g4
g6
tp1129
(dp1130
s(g2
g4
g6
tp1131
(dp1132
s(g2
g3
g4
tp1133
(dp1134
s(g2
g3
g5
g6
tp1135
(dp1136
s(g3
g4
g5
tp1137
(dp1138
s(g3
g4
tp1139
(dp1140
s(g3
g4
g5
g6
tp1141
(dp1142
sa(dp1143
(g2
g3
g4
g5
g6
tp1144
(dp1145
s(g2
g4
g5
g6
tp1146
(dp1147
s(g2
g3
g4
g5
tp1148
(dp1149
s(g4
g5
g6
tp1150
(dp1151
s(g3
g6
tp1152
(dp1153
s(g3
g5
tp1154
(dp1155
V16.47.110.61
p1156
(lp1157
I1
aI1
asV10.20.145.240
p1158
(lp1159
I3
aI10
asV99.9.10.202
p1160
(lp1161
I1
aI2
asV160.241.219.146
p1162
(lp1163
I1
aI1
asV23.95.111.1
p1164
(lp1165
I1
aI1
asV10.23.164.22
p1166
(lp1167
I44
aI6
ass(g2
g4
tp1168
(dp1169
s(g3
g5
g6
tp1170
(dp1171
s(g3
g4
g6
tp1172
(dp1173
s(g2
g5
tp1174
(dp1175
s(g2
g3
tp1176
(dp1177
s(g2
g3
g6
tp1178
(dp1179
s(g2
g6
tp1180
(dp1181
V30.169.95.100
p1182
(lp1183
I1
aI1
ass(g4
g5
tp1184
(dp1185
s(g2
g3
g5
tp1186
(dp1187
s(g2
g5
g6
tp1188
(dp1189
s(g5
g6
tp1190
(dp1191
s(g2
g4
g5
tp1192
(dp1193
s(g4
g6
tp1194
(dp1195
s(g2
g3
g4
g6
tp1196
(dp1197
s(g2
g4
g6
tp1198
(dp1199
s(g2
g3
g4
tp1200
(dp1201
s(g2
g3
g5
g6
tp1202
(dp1203
s(g3
g4
g5
tp1204
(dp1205
s(g3
g4
tp1206
(dp1207
s(g3
g4
g5
g6
tp1208
(dp1209
sa(dp1210
(g2
g3
g4
g5
g6
tp1211
(dp1212
s(g2
g4
g5
g6
tp1213
(dp1214
s(g2
g3
g4
g5
tp1215
(dp1216
s(g4
g5
g6
tp1217
(dp1218
s(g3
g6
tp1219
(dp1220
s(g3
g5
tp1221
(dp1222
V16.47.110.61
p1223
(lp1224
I1
aI1
asV23.95.111.1
p1225
(lp1226
I2
aI1
asV10.23.51.80
p1227
(lp1228
I12
aI1
asV160.241.219.146
p1229
(lp1230
I1
aI1
asV10.20.145.240
p1231
(lp1232
I4
aI8
asV165.7.165.200
p1233
(lp1234
I1
aI1
asV174.83.77.33
p1235
(lp1236
I1
aI1
asV10.23.164.22
p1237
(lp1238
I49
aI4
ass(g2
g4
tp1239
(dp1240
s(g3
g5
g6
tp1241
(dp1242
s(g3
g4
g6
tp1243
(dp1244
s(g2
g5
tp1245
(dp1246
V10.17.107.5
p1247
(lp1248
I1
aI197
ass(g2
g3
tp1249
(dp1250
s(g2
g3
g6
tp1251
(dp1252
s(g2
g6
tp1253
(dp1254
V30.169.95.100
p1255
(lp1256
I5
aI3
ass(g4
g5
tp1257
(dp1258
s(g2
g3
g5
tp1259
(dp1260
s(g2
g5
g6
tp1261
(dp1262
s(g5
g6
tp1263
(dp1264
s(g2
g4
g5
tp1265
(dp1266
s(g4
g6
tp1267
(dp1268
s(g2
g3
g4
g6
tp1269
(dp1270
s(g2
g4
g6
tp1271
(dp1272
s(g2
g3
g4
tp1273
(dp1274
s(g2
g3
g5
g6
tp1275
(dp1276
s(g3
g4
g5
tp1277
(dp1278
s(g3
g4
tp1279
(dp1280
s(g3
g4
g5
g6
tp1281
(dp1282
sa(dp1283
(g2
g3
g4
g5
g6
tp1284
(dp1285
s(g2
g4
g5
g6
tp1286
(dp1287
s(g2
g3
g4
g5
tp1288
(dp1289
s(g4
g5
g6
tp1290
(dp1291
s(g3
g6
tp1292
(dp1293
s(g3
g5
tp1294
(dp1295
V10.20.155.173
p1296
(lp1297
I2
aI2
asV10.23.153.68
p1298
(lp1299
I8
aI1
asV10.23.160.43
p1300
(lp1301
I1
aI1
asV10.23.51.73
p1302
(lp1303
I25
aI1
asV10.23.153.47
p1304
(lp1305
I13
aI1
asV10.23.160.41
p1306
(lp1307
I2
aI2
asV32.157.169.104
p1308
(lp1309
I2
aI36
asV168.83.47.53
p1310
(lp1311
I1
aI1
asV10.23.51.80
p1312
(lp1313
I11
aI2
asV10.20.145.240
p1314
(lp1315
I11
aI8
asV10.23.156.41
p1316
(lp1317
I16
aI9
asV10.23.160.62
p1318
(lp1319
I1
aI1
asV23.95.111.1
p1320
(lp1321
I1
aI2
asV10.20.155.111
p1322
(lp1323
I4
aI1
asV32.157.169.81
p1324
(lp1325
I3
aI51
asV10.23.153.28
p1326
(lp1327
I106
aI1
asV176.151.242.73
p1328
(lp1329
I3
aI36
asV10.23.153.29
p1330
(lp1331
I13
aI1
asV10.23.164.22
p1332
(lp1333
I91
aI3
ass(g2
g4
tp1334
(dp1335
s(g3
g5
g6
tp1336
(dp1337
s(g3
g4
g6
tp1338
(dp1339
s(g2
g5
tp1340
(dp1341
V10.17.107.5
p1342
(lp1343
I3
aI80
ass(g2
g3
tp1344
(dp1345
s(g2
g3
g6
tp1346
(dp1347
s(g2
g6
tp1348
(dp1349
V30.169.95.100
p1350
(lp1351
I4
aI2
ass(g4
g5
tp1352
(dp1353
s(g2
g3
g5
tp1354
(dp1355
s(g2
g5
g6
tp1356
(dp1357
s(g5
g6
tp1358
(dp1359
s(g2
g4
g5
tp1360
(dp1361
s(g4
g6
tp1362
(dp1363
s(g2
g3
g4
g6
tp1364
(dp1365
s(g2
g4
g6
tp1366
(dp1367
s(g2
g3
g4
tp1368
(dp1369
s(g2
g3
g5
g6
tp1370
(dp1371
s(g3
g4
g5
tp1372
(dp1373
s(g3
g4
tp1374
(dp1375
s(g3
g4
g5
g6
tp1376
(dp1377
sa.